; Function Attrs: mustprogress uwtable
define internal void @_ZN9grpc_core12_GLOBAL__N_116WeightedTargetLb14ShutdownLockedEv(ptr noundef nonnull align 8 dereferenceable(120) %this) unnamed_addr #3 align 2 personality ptr @__gxx_personality_v0 {
entry:
  %0 = load atomic i8, ptr getelementptr inbounds (%"class.grpc_core::TraceFlag", ptr @_ZN9grpc_core29grpc_lb_weighted_target_traceE, i64 0, i32 2, i32 0, i32 0) monotonic, align 8
  %1 = and i8 %0, 1
  %tobool.i.i.i.not = icmp eq i8 %1, 0
  br i1 %tobool.i.i.i.not, label %if.end, label %if.then

if.then:                                          ; preds = %entry
  tail call void (ptr, i32, i32, ptr, ...) @gpr_log(ptr noundef nonnull @.str.18, i32 noundef 302, i32 noundef 1, ptr noundef nonnull @.str.52, ptr noundef nonnull %this)
  br label %if.end

if.end:                                           ; preds = %if.then, %entry
  %shutting_down_ = getelementptr inbounds i8, ptr %this, i64 64
  store i8 1, ptr %shutting_down_, align 8
  %2 = getelementptr inbounds i8, ptr %this, i64 88
  %this.val.i.i = load ptr, ptr %2, align 8
  invoke fastcc void @_ZNSt8_Rb_treeINSt7__cxx1112basic_stringIcSt11char_traitsIcESaIcEEESt4pairIKS5_St10unique_ptrIN9grpc_core12_GLOBAL__N_116WeightedTargetLb13WeightedChildENS9_16OrphanableDeleteEEESt10_Select1stISF_ESt4lessIS5_ESaISF_EE8_M_eraseEPSt13_Rb_tree_nodeISF_E(ptr noundef %this.val.i.i)
          to label %_ZNSt3mapINSt7__cxx1112basic_stringIcSt11char_traitsIcESaIcEEESt10unique_ptrIN9grpc_core12_GLOBAL__N_116WeightedTargetLb13WeightedChildENS7_16OrphanableDeleteEESt4lessIS5_ESaISt4pairIKS5_SC_EEE5clearEv.exit unwind label %terminate.lpad.i.i

terminate.lpad.i.i:                               ; preds = %if.end
  %3 = landingpad { ptr, i32 }
          catch ptr null
  %4 = extractvalue { ptr, i32 } %3, 0
  tail call void @__clang_call_terminate(ptr %4) #27
  unreachable

_ZNSt3mapINSt7__cxx1112basic_stringIcSt11char_traitsIcESaIcEEESt10unique_ptrIN9grpc_core12_GLOBAL__N_116WeightedTargetLb13WeightedChildENS7_16OrphanableDeleteEESt4lessIS5_ESaISt4pairIKS5_SC_EEE5clearEv.exit: ; preds = %if.end
  %add.ptr.i.i = getelementptr inbounds i8, ptr %this, i64 80
  store ptr null, ptr %2, align 8
  %_M_left.i.i.i = getelementptr inbounds i8, ptr %this, i64 96
  store ptr %add.ptr.i.i, ptr %_M_left.i.i.i, align 8
  %_M_right.i.i.i = getelementptr inbounds i8, ptr %this, i64 104
  store ptr %add.ptr.i.i, ptr %_M_right.i.i.i, align 8
  %_M_node_count.i.i.i = getelementptr inbounds i8, ptr %this, i64 112
  store i64 0, ptr %_M_node_count.i.i.i, align 8
  ret void
}